; Function Attrs: uwtable
define void @_ZTv0_n48_N5arrow2io20TransformInputStream5AbortEv(ptr noalias sret(%"class.arrow::Status") align 8 %agg.result, ptr nocapture noundef readonly %this) unnamed_addr #6 align 2 {
entry:
  %0 = load ptr, ptr %this, align 8
  %1 = getelementptr inbounds i8, ptr %0, i64 -48
  %2 = load i64, ptr %1, align 8
  %3 = getelementptr inbounds i8, ptr %this, i64 %2
  %impl_.i = getelementptr inbounds i8, ptr %3, i64 8
  %4 = load ptr, ptr %impl_.i, align 8, !noalias !7
  %5 = load ptr, ptr %4, align 8, !noalias !7
  %vtable.i = load ptr, ptr %5, align 8, !noalias !7
  %vbase.offset.ptr.i = getelementptr i8, ptr %vtable.i, i64 -56
  %vbase.offset.i = load i64, ptr %vbase.offset.ptr.i, align 8, !noalias !7
  %add.ptr.i = getelementptr inbounds i8, ptr %5, i64 %vbase.offset.i
  %vtable3.i = load ptr, ptr %add.ptr.i, align 8, !noalias !7
  %vfn.i = getelementptr inbounds i8, ptr %vtable3.i, i64 32
  %6 = load ptr, ptr %vfn.i, align 8, !noalias !7
  tail call void %6(ptr sret(%"class.arrow::Status") align 8 %agg.result, ptr noundef nonnull align 8 dereferenceable(28) %add.ptr.i)
  ret void
}